; Function Attrs: nounwind uwtable
define range(i32 -1, 2) i32 @H5P_isa_class(i64 noundef %0, i64 noundef %1) local_unnamed_addr #0 {
  %3 = load i8, ptr @H5P_init_g, align 1, !tbaa !3, !range !7, !noundef !8
  %4 = trunc nuw i8 %3 to i1
  %5 = load i8, ptr @H5_libterm_g, align 1, !range !7
  %6 = trunc nuw i8 %5 to i1
  %7 = select i1 %4, i1 true, i1 %6
  br i1 %7, label %15, label %8, !prof !9

8:                                                ; preds = %2
  store i8 1, ptr @H5P_init_g, align 1, !tbaa !3
  %9 = tail call i32 @H5P__init_package()
  %10 = icmp slt i32 %9, 0
  br i1 %10, label %11, label %._crit_edge

._crit_edge:                                      ; preds = %8
  %.pre = load i8, ptr @H5P_init_g, align 1, !tbaa !3, !range !7
  %.pre12 = load i8, ptr @H5_libterm_g, align 1, !range !7
  %.pre13 = trunc nuw i8 %.pre to i1
  %.pre14 = trunc nuw i8 %.pre12 to i1
  br label %15

11:                                               ; preds = %8
  store i8 0, ptr @H5P_init_g, align 1, !tbaa !3
  %12 = load i64, ptr @H5E_FUNC_g, align 8, !tbaa !10
  %13 = load i64, ptr @H5E_CANTINIT_g, align 8, !tbaa !10
  %14 = tail call i32 (ptr, ptr, i32, i64, i64, ptr, ...) @H5E_printf_stack(ptr noundef nonnull @.str.7, ptr noundef nonnull @__func__.H5P_isa_class, i32 noundef 4134, i64 noundef %12, i64 noundef %13, ptr noundef nonnull @.str.8) #14
  br label %H5P_class_isa.exit

15:                                               ; preds = %._crit_edge, %2
  %.pre-phi15 = phi i1 [ %.pre14, %._crit_edge ], [ %6, %2 ]
  %.pre-phi = phi i1 [ %.pre13, %._crit_edge ], [ %4, %2 ]
  %16 = xor i1 %.pre-phi15, true
  %17 = select i1 %.pre-phi, i1 true, i1 %16
  br i1 %17, label %18, label %H5P_class_isa.exit, !prof !9

18:                                               ; preds = %15
  %19 = tail call ptr @H5I_object_verify(i64 noundef %0, i32 noundef 11) #14
  %20 = icmp eq ptr %19, null
  br i1 %20, label %21, label %25

21:                                               ; preds = %18
  %22 = load i64, ptr @H5E_ARGS_g, align 8, !tbaa !10
  %23 = load i64, ptr @H5E_BADTYPE_g, align 8, !tbaa !10
  %24 = tail call i32 (ptr, ptr, i32, i64, i64, ptr, ...) @H5E_printf_stack(ptr noundef nonnull @.str.7, ptr noundef nonnull @__func__.H5P_isa_class, i32 noundef 4138, i64 noundef %22, i64 noundef %23, ptr noundef nonnull @.str.51) #14
  br label %H5P_class_isa.exit

25:                                               ; preds = %18
  %26 = tail call ptr @H5I_object_verify(i64 noundef %1, i32 noundef 10) #14
  %27 = icmp eq ptr %26, null
  br i1 %27, label %28, label %32

28:                                               ; preds = %25
  %29 = load i64, ptr @H5E_ARGS_g, align 8, !tbaa !10
  %30 = load i64, ptr @H5E_BADTYPE_g, align 8, !tbaa !10
  %31 = tail call i32 (ptr, ptr, i32, i64, i64, ptr, ...) @H5E_printf_stack(ptr noundef nonnull @.str.7, ptr noundef nonnull @__func__.H5P_isa_class, i32 noundef 4140, i64 noundef %29, i64 noundef %30, ptr noundef nonnull @.str.52) #14
  br label %H5P_class_isa.exit

32:                                               ; preds = %25
  %33 = load ptr, ptr %19, align 8, !tbaa !54
  br label %tailrecurse.i

tailrecurse.i:                                    ; preds = %52, %32
  %.tr.i = phi ptr [ %33, %32 ], [ %53, %52 ]
  %34 = load i8, ptr @H5P_init_g, align 1, !tbaa !3, !range !7, !noundef !8
  %35 = trunc nuw i8 %34 to i1
  %36 = load i8, ptr @H5_libterm_g, align 1, !range !7
  %37 = trunc nuw i8 %36 to i1
  %38 = select i1 %35, i1 true, i1 %37
  br i1 %38, label %46, label %39, !prof !9

39:                                               ; preds = %tailrecurse.i
  store i8 1, ptr @H5P_init_g, align 1, !tbaa !3
  %40 = tail call i32 @H5P__init_package()
  %41 = icmp slt i32 %40, 0
  br i1 %41, label %42, label %._crit_edge.i

._crit_edge.i:                                    ; preds = %39
  %.pre.i = load i8, ptr @H5P_init_g, align 1, !tbaa !3, !range !7
  %.pre8.i = load i8, ptr @H5_libterm_g, align 1, !range !7
  %.pre9.i = trunc nuw i8 %.pre.i to i1
  %.pre10.i = trunc nuw i8 %.pre8.i to i1
  br label %46

42:                                               ; preds = %39
  store i8 0, ptr @H5P_init_g, align 1, !tbaa !3
  %43 = load i64, ptr @H5E_FUNC_g, align 8, !tbaa !10
  %44 = load i64, ptr @H5E_CANTINIT_g, align 8, !tbaa !10
  %45 = tail call i32 (ptr, ptr, i32, i64, i64, ptr, ...) @H5E_printf_stack(ptr noundef nonnull @.str.7, ptr noundef nonnull @__func__.H5P_class_isa, i32 noundef 4081, i64 noundef %43, i64 noundef %44, ptr noundef nonnull @.str.8) #14
  br label %.loopexit

46:                                               ; preds = %._crit_edge.i, %tailrecurse.i
  %.pre-phi11.i = phi i1 [ %.pre10.i, %._crit_edge.i ], [ %37, %tailrecurse.i ]
  %.pre-phi.i = phi i1 [ %.pre9.i, %._crit_edge.i ], [ %35, %tailrecurse.i ]
  %47 = xor i1 %.pre-phi11.i, true
  %48 = select i1 %.pre-phi.i, i1 true, i1 %47
  br i1 %48, label %49, label %.loopexit, !prof !9

49:                                               ; preds = %46
  %50 = tail call i32 @H5P__cmp_class(ptr noundef %.tr.i, ptr noundef nonnull readonly %26)
  %51 = icmp eq i32 %50, 0
  br i1 %51, label %H5P_class_isa.exit, label %52

52:                                               ; preds = %49
  %53 = load ptr, ptr %.tr.i, align 8, !tbaa !38
  %.not.i = icmp eq ptr %53, null
  br i1 %.not.i, label %H5P_class_isa.exit, label %tailrecurse.i

.loopexit:                                        ; preds = %46, %42
  %54 = load i64, ptr @H5E_PLIST_g, align 8, !tbaa !10
  %55 = load i64, ptr @H5E_CANTREGISTER_g, align 8, !tbaa !10
  %56 = tail call i32 (ptr, ptr, i32, i64, i64, ptr, ...) @H5E_printf_stack(ptr noundef nonnull @.str.7, ptr noundef nonnull @__func__.H5P_isa_class, i32 noundef 4144, i64 noundef %54, i64 noundef %55, ptr noundef nonnull @.str.53) #14
  br label %H5P_class_isa.exit

H5P_class_isa.exit:                               ; preds = %52, %49, %11, %21, %28, %.loopexit, %15
  %.0 = phi i32 [ -1, %11 ], [ -1, %21 ], [ -1, %28 ], [ -1, %.loopexit ], [ -1, %15 ], [ 1, %49 ], [ 0, %52 ]
  ret i32 %.0
}